target datalayout = "e-m:e-p270:32:32-p271:32:32-p272:64:64-i64:64-i128:128-f80:128-n8:16:32:64-S128"
target triple = "x86_64-pc-linux-gnu"

%struct._Unwind_Exception = type { i64, ptr, i64, i64 }
%"struct.__cxxabiv1::__cxa_exception" = type { ptr, i64, ptr, ptr, ptr, ptr, ptr, i32, i32, ptr, ptr, ptr, ptr, %struct._Unwind_Exception }
%"struct.__cxxabiv1::__cxa_eh_globals" = type { ptr, i32 }
%"struct.__cxxabiv1::__cxa_dependent_exception" = type { ptr, ptr, ptr, ptr, ptr, ptr, ptr, i32, i32, ptr, ptr, ptr, ptr, %struct._Unwind_Exception }

; Function Attrs: mustprogress nounwind uwtable
define internal noundef i64 @_ZN10__cxxabiv1L24get_cxa_exception_offsetEv() #0 {
  %1 = alloca i64, align 8
  %2 = alloca i64, align 8
  %3 = alloca i64, align 8
  %4 = alloca i64, align 8
  call void @llvm.lifetime.start.p0(i64 8, ptr %1) #14
  store i64 16, ptr %1, align 8, !tbaa !9
  call void @llvm.lifetime.start.p0(i64 8, ptr %2) #14
  store i64 128, ptr %2, align 8, !tbaa !9
  call void @llvm.lifetime.start.p0(i64 8, ptr %3) #14
  store i64 128, ptr %3, align 8, !tbaa !9
  call void @llvm.lifetime.start.p0(i64 8, ptr %4) #14
  store i64 0, ptr %4, align 8, !tbaa !9
  call void @llvm.lifetime.end.p0(i64 8, ptr %4) #14
  call void @llvm.lifetime.end.p0(i64 8, ptr %3) #14
  call void @llvm.lifetime.end.p0(i64 8, ptr %2) #14
  call void @llvm.lifetime.end.p0(i64 8, ptr %1) #14
  ret i64 0
}

; Function Attrs: mustprogress nounwind uwtable
define dso_local void @__cxa_free_exception(ptr noundef %0) #0 personality ptr @__gxx_personality_v0 {
  %2 = alloca ptr, align 8
  %3 = alloca i64, align 8
  %4 = alloca ptr, align 8
  store ptr %0, ptr %2, align 8, !tbaa !15
  call void @llvm.lifetime.start.p0(i64 8, ptr %3) #14
  %5 = invoke noundef i64 @_ZN10__cxxabiv1L24get_cxa_exception_offsetEv()
          to label %6 unwind label %15

6:                                                ; preds = %1
  store i64 %5, ptr %3, align 8, !tbaa !9
  call void @llvm.lifetime.start.p0(i64 8, ptr %4) #14
  %7 = load ptr, ptr %2, align 8, !tbaa !15
  %8 = invoke noundef ptr @_ZN10__cxxabiv1L32cxa_exception_from_thrown_objectEPv(ptr noundef %7)
          to label %9 unwind label %15

9:                                                ; preds = %6
  %10 = load i64, ptr %3, align 8, !tbaa !9
  %11 = sub i64 0, %10
  %12 = getelementptr inbounds i8, ptr %8, i64 %11
  store ptr %12, ptr %4, align 8, !tbaa !11
  %13 = load ptr, ptr %4, align 8, !tbaa !11
  invoke void @_ZN10__cxxabiv128__aligned_free_with_fallbackEPv(ptr noundef %13)
          to label %14 unwind label %15

14:                                               ; preds = %9
  call void @llvm.lifetime.end.p0(i64 8, ptr %4) #14
  call void @llvm.lifetime.end.p0(i64 8, ptr %3) #14
  ret void

15:                                               ; preds = %9, %6, %1
  %16 = landingpad { ptr, i32 }
          catch ptr null
  %17 = extractvalue { ptr, i32 } %16, 0
  call void @__clang_call_terminate(ptr %17) #15
  unreachable
}

; Function Attrs: inlinehint mustprogress nounwind uwtable
define internal noundef i64 @_ZNSt3__112_GLOBAL__N_119__libcpp_atomic_addB8ne210000ImmEET_PS2_T0_i(ptr noundef %0, i64 noundef %1, i32 noundef %2) #8 {
  %4 = alloca ptr, align 8
  %5 = alloca i64, align 8
  %6 = alloca i32, align 4
  %7 = alloca i64, align 8
  %8 = alloca i64, align 8
  store ptr %0, ptr %4, align 8, !tbaa !45
  store i64 %1, ptr %5, align 8, !tbaa !9
  store i32 %2, ptr %6, align 4, !tbaa !47
  %9 = load ptr, ptr %4, align 8, !tbaa !45
  %10 = load i32, ptr %6, align 4, !tbaa !47
  %11 = load i64, ptr %5, align 8, !tbaa !9
  store i64 %11, ptr %7, align 8, !tbaa !9
  switch i32 %10, label %12 [
    i32 1, label %16
    i32 2, label %16
    i32 3, label %20
    i32 4, label %24
    i32 5, label %28
  ]

12:                                               ; preds = %3
  %13 = load i64, ptr %7, align 8
  %14 = atomicrmw add ptr %9, i64 %13 monotonic, align 8
  %15 = add i64 %14, %13
  store i64 %15, ptr %8, align 8
  br label %32

16:                                               ; preds = %3, %3
  %17 = load i64, ptr %7, align 8
  %18 = atomicrmw add ptr %9, i64 %17 acquire, align 8
  %19 = add i64 %18, %17
  store i64 %19, ptr %8, align 8
  br label %32

20:                                               ; preds = %3
  %21 = load i64, ptr %7, align 8
  %22 = atomicrmw add ptr %9, i64 %21 release, align 8
  %23 = add i64 %22, %21
  store i64 %23, ptr %8, align 8
  br label %32

24:                                               ; preds = %3
  %25 = load i64, ptr %7, align 8
  %26 = atomicrmw add ptr %9, i64 %25 acq_rel, align 8
  %27 = add i64 %26, %25
  store i64 %27, ptr %8, align 8
  br label %32

28:                                               ; preds = %3
  %29 = load i64, ptr %7, align 8
  %30 = atomicrmw add ptr %9, i64 %29 seq_cst, align 8
  %31 = add i64 %30, %29
  store i64 %31, ptr %8, align 8
  br label %32

32:                                               ; preds = %28, %24, %20, %16, %12
  %33 = load i64, ptr %8, align 8, !tbaa !9
  ret i64 %33
}

; Function Attrs: mustprogress nounwind uwtable
define hidden noundef i64 @_ZN10__cxxabiv119__getExceptionClassEPK17_Unwind_Exception(ptr noundef %0) #0 {
  %2 = alloca ptr, align 8
  %3 = alloca i64, align 8
  store ptr %0, ptr %2, align 8, !tbaa !4
  call void @llvm.lifetime.start.p0(i64 8, ptr %3) #14
  %4 = load ptr, ptr %2, align 8, !tbaa !4
  %5 = getelementptr inbounds nuw %struct._Unwind_Exception, ptr %4, i32 0, i32 0
  call void @llvm.memcpy.p0.p0.i64(ptr align 8 %3, ptr align 16 %5, i64 8, i1 false)
  %6 = load i64, ptr %3, align 8, !tbaa !9
  call void @llvm.lifetime.end.p0(i64 8, ptr %3) #14
  ret i64 %6
}

; Function Attrs: mustprogress nounwind uwtable
define dso_local void @__cxa_decrement_exception_refcount(ptr noundef %0) #0 personality ptr @__gxx_personality_v0 {
  %2 = alloca ptr, align 8
  %3 = alloca ptr, align 8
  store ptr %0, ptr %2, align 8, !tbaa !15
  %4 = load ptr, ptr %2, align 8, !tbaa !15
  %5 = icmp ne ptr %4, null
  br i1 %5, label %6, label %29

6:                                                ; preds = %1
  call void @llvm.lifetime.start.p0(i64 8, ptr %3) #14
  %7 = load ptr, ptr %2, align 8, !tbaa !15
  %8 = invoke noundef ptr @_ZN10__cxxabiv1L32cxa_exception_from_thrown_objectEPv(ptr noundef %7)
          to label %9 unwind label %30

9:                                                ; preds = %6
  store ptr %8, ptr %3, align 8, !tbaa !13
  %10 = load ptr, ptr %3, align 8, !tbaa !13
  %11 = getelementptr inbounds nuw %"struct.__cxxabiv1::__cxa_exception", ptr %10, i32 0, i32 1
  %12 = invoke noundef i64 @_ZNSt3__112_GLOBAL__N_119__libcpp_atomic_addB8ne210000ImmEET_PS2_T0_i(ptr noundef %11, i64 noundef -1, i32 noundef 5)
          to label %13 unwind label %30

13:                                               ; preds = %9
  %14 = icmp eq i64 %12, 0
  br i1 %14, label %15, label %28

15:                                               ; preds = %13
  %16 = load ptr, ptr %3, align 8, !tbaa !13
  %17 = getelementptr inbounds nuw %"struct.__cxxabiv1::__cxa_exception", ptr %16, i32 0, i32 3
  %18 = load ptr, ptr %17, align 8, !tbaa !37
  %19 = icmp ne ptr null, %18
  br i1 %19, label %20, label %26

20:                                               ; preds = %15
  %21 = load ptr, ptr %3, align 8, !tbaa !13
  %22 = getelementptr inbounds nuw %"struct.__cxxabiv1::__cxa_exception", ptr %21, i32 0, i32 3
  %23 = load ptr, ptr %22, align 8, !tbaa !37
  %24 = load ptr, ptr %2, align 8, !tbaa !15
  invoke void %23(ptr noundef %24)
          to label %25 unwind label %30

25:                                               ; preds = %20
  br label %26

26:                                               ; preds = %25, %15
  %27 = load ptr, ptr %2, align 8, !tbaa !15
  call void @__cxa_free_exception(ptr noundef %27) #14
  br label %28

28:                                               ; preds = %26, %13
  call void @llvm.lifetime.end.p0(i64 8, ptr %3) #14
  br label %29

29:                                               ; preds = %28, %1
  ret void

30:                                               ; preds = %20, %9, %6
  %31 = landingpad { ptr, i32 }
          catch ptr null
  %32 = extractvalue { ptr, i32 } %31, 0
  call void @__clang_call_terminate(ptr %32) #15
  unreachable
}

; Function Attrs: inlinehint mustprogress nounwind uwtable
define internal noundef ptr @_ZN10__cxxabiv1L32thrown_object_from_cxa_exceptionEPNS_15__cxa_exceptionE(ptr noundef %0) #8 {
  %2 = alloca ptr, align 8
  store ptr %0, ptr %2, align 8, !tbaa !13
  %3 = load ptr, ptr %2, align 8, !tbaa !13
  %4 = getelementptr inbounds %"struct.__cxxabiv1::__cxa_exception", ptr %3, i64 1
  ret ptr %4
}

; Function Attrs: mustprogress uwtable
define dso_local void @__cxa_free_dependent_exception(ptr noundef %0) #10 {
  %2 = alloca ptr, align 8
  store ptr %0, ptr %2, align 8, !tbaa !15
  %3 = load ptr, ptr %2, align 8, !tbaa !15
  call void @_ZN10__cxxabiv128__aligned_free_with_fallbackEPv(ptr noundef %3)
  ret void
}

; Function Attrs: inlinehint mustprogress nounwind uwtable
define internal noundef ptr @_ZN10__cxxabiv1L32cxa_exception_from_thrown_objectEPv(ptr noundef %0) #8 {
  %2 = alloca ptr, align 8
  store ptr %0, ptr %2, align 8, !tbaa !15
  %3 = load ptr, ptr %2, align 8, !tbaa !15
  %4 = getelementptr inbounds %"struct.__cxxabiv1::__cxa_exception", ptr %3, i64 -1
  ret ptr %4
}

; Function Attrs: mustprogress nounwind uwtable
define internal noundef zeroext i1 @_ZN10__cxxabiv1L20isDependentExceptionEP17_Unwind_Exception(ptr noundef %0) #0 {
  %2 = alloca ptr, align 8
  store ptr %0, ptr %2, align 8, !tbaa !4
  %3 = load ptr, ptr %2, align 8, !tbaa !4
  %4 = call noundef i64 @_ZN10__cxxabiv119__getExceptionClassEPK17_Unwind_Exception(ptr noundef %3)
  %5 = and i64 %4, 255
  %6 = icmp eq i64 %5, 1
  ret i1 %6
}

; Function Attrs: inlinehint mustprogress nounwind uwtable
define internal noundef i32 @_ZN10__cxxabiv1L21decrementHandlerCountEPNS_15__cxa_exceptionE(ptr noundef %0) #8 {
  %2 = alloca ptr, align 8
  store ptr %0, ptr %2, align 8, !tbaa !13
  %3 = load ptr, ptr %2, align 8, !tbaa !13
  %4 = getelementptr inbounds nuw %"struct.__cxxabiv1::__cxa_exception", ptr %3, i32 0, i32 7
  %5 = load i32, ptr %4, align 8, !tbaa !22
  %6 = add nsw i32 %5, -1
  store i32 %6, ptr %4, align 8, !tbaa !22
  ret i32 %6
}

; Function Attrs: inlinehint mustprogress nounwind uwtable
define internal noundef i32 @_ZN10__cxxabiv1L21incrementHandlerCountEPNS_15__cxa_exceptionE(ptr noundef %0) #8 {
  %2 = alloca ptr, align 8
  store ptr %0, ptr %2, align 8, !tbaa !13
  %3 = load ptr, ptr %2, align 8, !tbaa !13
  %4 = getelementptr inbounds nuw %"struct.__cxxabiv1::__cxa_exception", ptr %3, i32 0, i32 7
  %5 = load i32, ptr %4, align 8, !tbaa !22
  %6 = add nsw i32 %5, 1
  store i32 %6, ptr %4, align 8, !tbaa !22
  ret i32 %6
}

; Function Attrs: mustprogress nounwind uwtable
define hidden noundef zeroext i1 @_ZN10__cxxabiv121__isOurExceptionClassEPK17_Unwind_Exception(ptr noundef %0) #0 {
  %2 = alloca ptr, align 8
  store ptr %0, ptr %2, align 8, !tbaa !4
  %3 = load ptr, ptr %2, align 8, !tbaa !4
  %4 = call noundef i64 @_ZN10__cxxabiv119__getExceptionClassEPK17_Unwind_Exception(ptr noundef %3)
  %5 = and i64 %4, -256
  %6 = icmp eq i64 %5, 4849336966747728640
  ret i1 %6
}

; Function Attrs: mustprogress uwtable
define dso_local void @__cxa_end_catch() #10 {
  %1 = alloca ptr, align 8
  %2 = alloca ptr, align 8
  %3 = alloca i8, align 1
  %4 = alloca ptr, align 8
  call void @llvm.lifetime.start.p0(i64 8, ptr %1) #14
  %5 = call ptr @__cxa_get_globals_fast()
  store ptr %5, ptr %1, align 8, !tbaa !18
  call void @llvm.lifetime.start.p0(i64 8, ptr %2) #14
  %6 = load ptr, ptr %1, align 8, !tbaa !18
  %7 = getelementptr inbounds nuw %"struct.__cxxabiv1::__cxa_eh_globals", ptr %6, i32 0, i32 0
  %8 = load ptr, ptr %7, align 8, !tbaa !27
  store ptr %8, ptr %2, align 8, !tbaa !13
  %9 = load ptr, ptr %2, align 8, !tbaa !13
  %10 = icmp ne ptr null, %9
  br i1 %10, label %11, label %67

11:                                               ; preds = %0
  call void @llvm.lifetime.start.p0(i64 1, ptr %3) #14
  %12 = load ptr, ptr %2, align 8, !tbaa !13
  %13 = getelementptr inbounds nuw %"struct.__cxxabiv1::__cxa_exception", ptr %12, i32 0, i32 13
  %14 = call noundef zeroext i1 @_ZN10__cxxabiv121__isOurExceptionClassEPK17_Unwind_Exception(ptr noundef %13)
  %15 = zext i1 %14 to i8
  store i8 %15, ptr %3, align 1, !tbaa !16
  %16 = load i8, ptr %3, align 1, !tbaa !16, !range !20, !noundef !21
  %17 = trunc i8 %16 to i1
  br i1 %17, label %18, label %59

18:                                               ; preds = %11
  %19 = load ptr, ptr %2, align 8, !tbaa !13
  %20 = getelementptr inbounds nuw %"struct.__cxxabiv1::__cxa_exception", ptr %19, i32 0, i32 7
  %21 = load i32, ptr %20, align 8, !tbaa !22
  %22 = icmp slt i32 %21, 0
  br i1 %22, label %23, label %34

23:                                               ; preds = %18
  %24 = load ptr, ptr %2, align 8, !tbaa !13
  %25 = call noundef i32 @_ZN10__cxxabiv1L21incrementHandlerCountEPNS_15__cxa_exceptionE(ptr noundef %24)
  %26 = icmp eq i32 0, %25
  br i1 %26, label %27, label %33

27:                                               ; preds = %23
  %28 = load ptr, ptr %2, align 8, !tbaa !13
  %29 = getelementptr inbounds nuw %"struct.__cxxabiv1::__cxa_exception", ptr %28, i32 0, i32 6
  %30 = load ptr, ptr %29, align 16, !tbaa !29
  %31 = load ptr, ptr %1, align 8, !tbaa !18
  %32 = getelementptr inbounds nuw %"struct.__cxxabiv1::__cxa_eh_globals", ptr %31, i32 0, i32 0
  store ptr %30, ptr %32, align 8, !tbaa !27
  br label %33

33:                                               ; preds = %27, %23
  br label %58

34:                                               ; preds = %18
  %35 = load ptr, ptr %2, align 8, !tbaa !13
  %36 = call noundef i32 @_ZN10__cxxabiv1L21decrementHandlerCountEPNS_15__cxa_exceptionE(ptr noundef %35)
  %37 = icmp eq i32 0, %36
  br i1 %37, label %38, label %57

38:                                               ; preds = %34
  %39 = load ptr, ptr %2, align 8, !tbaa !13
  %40 = getelementptr inbounds nuw %"struct.__cxxabiv1::__cxa_exception", ptr %39, i32 0, i32 6
  %41 = load ptr, ptr %40, align 16, !tbaa !29
  %42 = load ptr, ptr %1, align 8, !tbaa !18
  %43 = getelementptr inbounds nuw %"struct.__cxxabiv1::__cxa_eh_globals", ptr %42, i32 0, i32 0
  store ptr %41, ptr %43, align 8, !tbaa !27
  %44 = load ptr, ptr %2, align 8, !tbaa !13
  %45 = getelementptr inbounds nuw %"struct.__cxxabiv1::__cxa_exception", ptr %44, i32 0, i32 13
  %46 = call noundef zeroext i1 @_ZN10__cxxabiv1L20isDependentExceptionEP17_Unwind_Exception(ptr noundef %45)
  br i1 %46, label %47, label %54

47:                                               ; preds = %38
  call void @llvm.lifetime.start.p0(i64 8, ptr %4) #14
  %48 = load ptr, ptr %2, align 8, !tbaa !13
  store ptr %48, ptr %4, align 8, !tbaa !41
  %49 = load ptr, ptr %4, align 8, !tbaa !41
  %50 = getelementptr inbounds nuw %"struct.__cxxabiv1::__cxa_dependent_exception", ptr %49, i32 0, i32 1
  %51 = load ptr, ptr %50, align 8, !tbaa !43
  %52 = call noundef ptr @_ZN10__cxxabiv1L32cxa_exception_from_thrown_objectEPv(ptr noundef %51)
  store ptr %52, ptr %2, align 8, !tbaa !13
  %53 = load ptr, ptr %4, align 8, !tbaa !41
  call void @__cxa_free_dependent_exception(ptr noundef %53)
  call void @llvm.lifetime.end.p0(i64 8, ptr %4) #14
  br label %54

54:                                               ; preds = %47, %38
  %55 = load ptr, ptr %2, align 8, !tbaa !13
  %56 = call noundef ptr @_ZN10__cxxabiv1L32thrown_object_from_cxa_exceptionEPNS_15__cxa_exceptionE(ptr noundef %55)
  call void @__cxa_decrement_exception_refcount(ptr noundef %56) #14
  br label %57

57:                                               ; preds = %54, %34
  br label %58

58:                                               ; preds = %57, %33
  br label %66

59:                                               ; preds = %11
  %60 = load ptr, ptr %1, align 8, !tbaa !18
  %61 = getelementptr inbounds nuw %"struct.__cxxabiv1::__cxa_eh_globals", ptr %60, i32 0, i32 0
  %62 = load ptr, ptr %61, align 8, !tbaa !27
  %63 = getelementptr inbounds nuw %"struct.__cxxabiv1::__cxa_exception", ptr %62, i32 0, i32 13
  call void @_Unwind_DeleteException(ptr noundef %63)
  %64 = load ptr, ptr %1, align 8, !tbaa !18
  %65 = getelementptr inbounds nuw %"struct.__cxxabiv1::__cxa_eh_globals", ptr %64, i32 0, i32 0
  store ptr null, ptr %65, align 8, !tbaa !27
  br label %66

66:                                               ; preds = %59, %58
  call void @llvm.lifetime.end.p0(i64 1, ptr %3) #14
  br label %67

67:                                               ; preds = %66, %0
  call void @llvm.lifetime.end.p0(i64 8, ptr %2) #14
  call void @llvm.lifetime.end.p0(i64 8, ptr %1) #14
  ret void
}