; Function Attrs: mustprogress uwtable
define dso_local void @__cxa_end_catch() local_unnamed_addr #9 personality ptr @__gxx_personality_v0 {
  %1 = tail call ptr @__cxa_get_globals_fast()
  %2 = load ptr, ptr %1, align 8, !tbaa !15
  %.not = icmp eq ptr %2, null
  br i1 %.not, label %__cxa_decrement_exception_refcount.exit, label %3

3:                                                ; preds = %0
  %4 = getelementptr inbounds nuw i8, ptr %2, i64 96
  %.0.copyload.i.i = load i64, ptr %4, align 16
  %5 = and i64 %.0.copyload.i.i, -256
  %6 = icmp eq i64 %5, 4849336966747728640
  br i1 %6, label %7, label %45

7:                                                ; preds = %3
  %8 = getelementptr inbounds nuw i8, ptr %2, i64 56
  %9 = load i32, ptr %8, align 8, !tbaa !4
  %10 = icmp slt i32 %9, 0
  br i1 %10, label %11, label %17

11:                                               ; preds = %7
  %12 = add nsw i32 %9, 1
  store i32 %12, ptr %8, align 8, !tbaa !4
  %13 = icmp eq i32 %12, 0
  br i1 %13, label %14, label %__cxa_decrement_exception_refcount.exit

14:                                               ; preds = %11
  %15 = getelementptr inbounds nuw i8, ptr %2, i64 48
  %16 = load ptr, ptr %15, align 16, !tbaa !17
  br label %__cxa_decrement_exception_refcount.exit.sink.split

17:                                               ; preds = %7
  %18 = add nsw i32 %9, -1
  store i32 %18, ptr %8, align 8, !tbaa !4
  %19 = icmp eq i32 %18, 0
  br i1 %19, label %20, label %__cxa_decrement_exception_refcount.exit

20:                                               ; preds = %17
  %21 = getelementptr inbounds nuw i8, ptr %2, i64 48
  %22 = load ptr, ptr %21, align 16, !tbaa !17
  store ptr %22, ptr %1, align 8, !tbaa !15
  %.val = load i64, ptr %4, align 16
  %23 = and i64 %.val, 255
  %24 = icmp eq i64 %23, 1
  br i1 %24, label %25, label %29

25:                                               ; preds = %20
  %26 = getelementptr inbounds nuw i8, ptr %2, i64 8
  %27 = load ptr, ptr %26, align 8, !tbaa !26
  %28 = getelementptr inbounds i8, ptr %27, i64 -128
  tail call void @_ZN10__cxxabiv128__aligned_free_with_fallbackEPv(ptr noundef nonnull %2)
  br label %29

29:                                               ; preds = %25, %20
  %.0 = phi ptr [ %28, %25 ], [ %2, %20 ]
  %30 = getelementptr inbounds nuw i8, ptr %.0, i64 128
  %31 = getelementptr inbounds nuw i8, ptr %.0, i64 8
  %32 = atomicrmw add ptr %31, i64 -1 seq_cst, align 8
  %33 = icmp eq i64 %32, 1
  br i1 %33, label %34, label %__cxa_decrement_exception_refcount.exit

34:                                               ; preds = %29
  %35 = getelementptr inbounds nuw i8, ptr %.0, i64 24
  %36 = load ptr, ptr %35, align 8, !tbaa !24
  %.not8.i = icmp eq ptr %36, null
  br i1 %.not8.i, label %38, label %37

37:                                               ; preds = %34
  invoke void %36(ptr noundef nonnull %30)
          to label %38 unwind label %42

38:                                               ; preds = %37, %34
  invoke void @_ZN10__cxxabiv128__aligned_free_with_fallbackEPv(ptr noundef nonnull %.0)
          to label %__cxa_decrement_exception_refcount.exit unwind label %39

39:                                               ; preds = %38
  %40 = landingpad { ptr, i32 }
          catch ptr null
  %41 = extractvalue { ptr, i32 } %40, 0
  tail call void @__clang_call_terminate(ptr %41) #16
  unreachable

42:                                               ; preds = %37
  %43 = landingpad { ptr, i32 }
          catch ptr null
  %44 = extractvalue { ptr, i32 } %43, 0
  tail call void @__clang_call_terminate(ptr %44) #16
  unreachable

45:                                               ; preds = %3
  tail call void @_Unwind_DeleteException(ptr noundef nonnull %4)
  br label %__cxa_decrement_exception_refcount.exit.sink.split

__cxa_decrement_exception_refcount.exit.sink.split: ; preds = %14, %45
  %.sink = phi ptr [ null, %45 ], [ %16, %14 ]
  store ptr %.sink, ptr %1, align 8, !tbaa !15
  br label %__cxa_decrement_exception_refcount.exit

__cxa_decrement_exception_refcount.exit:          ; preds = %__cxa_decrement_exception_refcount.exit.sink.split, %38, %29, %17, %11, %0
  ret void
}